(dp0
S'20160401'
p1
(lp2
ccopy_reg
_reconstructor
p3
(cmeasurements
TweetCounter
p4
c__builtin__
object
p5
Ntp6
Rp7
(dp8
S'counter'
p9
I1789
sbag3
(cmeasurements
ReTweetCounter
p10
g5
Ntp11
Rp12
(dp13
g9
I738
sS'filters'
p14
(lp15
((lp16
S'verb'
p17
acoperator
eq
p18
S'share'
p19
tp20
asbas.